target datalayout = "e-m:e-p270:32:32-p271:32:32-p272:64:64-i64:64-i128:128-f80:128-n8:16:32:64-S128"
target triple = "x86_64-pc-linux-gnu"

%struct.mi_cache_slot_s = type { ptr, i64, i8, %struct.mi_commit_mask_s, %struct.mi_commit_mask_s, i64 }
%struct.mi_commit_mask_s = type { [16 x i64] }
%struct.mi_os_tld_s = type { i64, ptr }

@cache_available = internal global [16 x i64] [i64 -1, i64 -1, i64 -1, i64 -1, i64 -1, i64 -1, i64 -1, i64 -1, i64 -1, i64 -1, i64 -1, i64 -1, i64 -1, i64 -1, i64 -1, i64 -1], align 64
@cache = internal global [1024 x %struct.mi_cache_slot_s] zeroinitializer, align 64

; Function Attrs: inlinehint nounwind uwtable
define internal i64 @mi_bitmap_index_create(i64 noundef %0, i64 noundef %1) #2 {
  %3 = alloca i64, align 8
  %4 = alloca i64, align 8
  store i64 %0, ptr %3, align 8, !tbaa !3
  store i64 %1, ptr %4, align 8, !tbaa !3
  %5 = load i64, ptr %3, align 8, !tbaa !3
  %6 = mul i64 %5, 64
  %7 = load i64, ptr %4, align 8, !tbaa !3
  %8 = add i64 %6, %7
  ret i64 %8
}

; Function Attrs: inlinehint nounwind uwtable
define internal void @mi_commit_mask_create_empty(ptr noundef %0) #2 {
  %2 = alloca ptr, align 8
  %3 = alloca i64, align 8
  store ptr %0, ptr %2, align 8, !tbaa !7
  call void @llvm.lifetime.start.p0(i64 8, ptr %3) #8
  store i64 0, ptr %3, align 8, !tbaa !3
  br label %4

4:                                                ; preds = %13, %1
  %5 = load i64, ptr %3, align 8, !tbaa !3
  %6 = icmp ult i64 %5, 16
  br i1 %6, label %8, label %7

7:                                                ; preds = %4
  call void @llvm.lifetime.end.p0(i64 8, ptr %3) #8
  br label %16

8:                                                ; preds = %4
  %9 = load ptr, ptr %2, align 8, !tbaa !7
  %10 = getelementptr inbounds nuw %struct.mi_commit_mask_s, ptr %9, i32 0, i32 0
  %11 = load i64, ptr %3, align 8, !tbaa !3
  %12 = getelementptr inbounds nuw [16 x i64], ptr %10, i64 0, i64 %11
  store i64 0, ptr %12, align 8, !tbaa !3
  br label %13

13:                                               ; preds = %8
  %14 = load i64, ptr %3, align 8, !tbaa !3
  %15 = add i64 %14, 1
  store i64 %15, ptr %3, align 8, !tbaa !3
  br label %4, !llvm.loop !40

16:                                               ; preds = %7
  ret void
}

; Function Attrs: inlinehint nounwind uwtable
define internal i64 @mi_bitmap_index_create_from_bit(i64 noundef %0) #2 {
  %2 = alloca i64, align 8
  store i64 %0, ptr %2, align 8, !tbaa !3
  %3 = load i64, ptr %2, align 8, !tbaa !3
  %4 = udiv i64 %3, 64
  %5 = load i64, ptr %2, align 8, !tbaa !3
  %6 = urem i64 %5, 64
  %7 = call i64 @mi_bitmap_index_create(i64 noundef %4, i64 noundef %6)
  ret i64 %7
}

; Function Attrs: inlinehint nounwind uwtable
define internal i64 @_mi_random_shuffle(i64 noundef %0) #2 {
  %2 = alloca i64, align 8
  store i64 %0, ptr %2, align 8, !tbaa !3
  %3 = load i64, ptr %2, align 8, !tbaa !3
  %4 = icmp eq i64 %3, 0
  br i1 %4, label %5, label %6

5:                                                ; preds = %1
  store i64 17, ptr %2, align 8, !tbaa !3
  br label %6

6:                                                ; preds = %5, %1
  %7 = load i64, ptr %2, align 8, !tbaa !3
  %8 = lshr i64 %7, 30
  %9 = load i64, ptr %2, align 8, !tbaa !3
  %10 = xor i64 %9, %8
  store i64 %10, ptr %2, align 8, !tbaa !3
  %11 = load i64, ptr %2, align 8, !tbaa !3
  %12 = mul i64 %11, -4658895280553007687
  store i64 %12, ptr %2, align 8, !tbaa !3
  %13 = load i64, ptr %2, align 8, !tbaa !3
  %14 = lshr i64 %13, 27
  %15 = load i64, ptr %2, align 8, !tbaa !3
  %16 = xor i64 %15, %14
  store i64 %16, ptr %2, align 8, !tbaa !3
  %17 = load i64, ptr %2, align 8, !tbaa !3
  %18 = mul i64 %17, -7723592293110705685
  store i64 %18, ptr %2, align 8, !tbaa !3
  %19 = load i64, ptr %2, align 8, !tbaa !3
  %20 = lshr i64 %19, 31
  %21 = load i64, ptr %2, align 8, !tbaa !3
  %22 = xor i64 %21, %20
  store i64 %22, ptr %2, align 8, !tbaa !3
  %23 = load i64, ptr %2, align 8, !tbaa !3
  ret i64 %23
}

; Function Attrs: noinline nounwind uwtable
define internal void @mi_segment_cache_purge(i1 noundef zeroext %0, ptr noundef %1) #0 {
  %3 = alloca i8, align 1
  %4 = alloca ptr, align 8
  %5 = alloca i64, align 8
  %6 = alloca i64, align 8
  %7 = alloca i64, align 8
  %8 = alloca i64, align 8
  %9 = alloca i64, align 8
  %10 = alloca i32, align 4
  %11 = alloca ptr, align 8
  %12 = alloca i64, align 8
  %13 = alloca i64, align 8
  %14 = alloca i64, align 8
  %15 = alloca i64, align 8
  %16 = alloca i64, align 8
  %17 = zext i1 %0 to i8
  store i8 %17, ptr %3, align 1, !tbaa !18
  store ptr %1, ptr %4, align 8, !tbaa !14
  %18 = call zeroext i1 @mi_option_is_enabled(i32 noundef 22)
  br i1 %18, label %20, label %19

19:                                               ; preds = %2
  br label %120

20:                                               ; preds = %2
  call void @llvm.lifetime.start.p0(i64 8, ptr %5) #8
  %21 = call i64 @_mi_clock_now()
  store i64 %21, ptr %5, align 8, !tbaa !3
  call void @llvm.lifetime.start.p0(i64 8, ptr %6) #8
  store i64 0, ptr %6, align 8, !tbaa !3
  call void @llvm.lifetime.start.p0(i64 8, ptr %7) #8
  %22 = load i8, ptr %3, align 1, !tbaa !18, !range !20, !noundef !21
  %23 = trunc i8 %22 to i1
  %24 = select i1 %23, i32 1024, i32 16
  %25 = sext i32 %24 to i64
  store i64 %25, ptr %7, align 8, !tbaa !3
  call void @llvm.lifetime.start.p0(i64 8, ptr %8) #8
  %26 = load i8, ptr %3, align 1, !tbaa !18, !range !20, !noundef !21
  %27 = trunc i8 %26 to i1
  br i1 %27, label %28, label %29

28:                                               ; preds = %20
  br label %33

29:                                               ; preds = %20
  %30 = load i64, ptr %5, align 8, !tbaa !3
  %31 = call i64 @_mi_random_shuffle(i64 noundef %30)
  %32 = urem i64 %31, 1024
  br label %33

33:                                               ; preds = %29, %28
  %34 = phi i64 [ 0, %28 ], [ %32, %29 ]
  store i64 %34, ptr %8, align 8, !tbaa !3
  call void @llvm.lifetime.start.p0(i64 8, ptr %9) #8
  store i64 0, ptr %9, align 8, !tbaa !3
  br label %35

35:                                               ; preds = %113, %33
  %36 = load i64, ptr %9, align 8, !tbaa !3
  %37 = load i64, ptr %7, align 8, !tbaa !3
  %38 = icmp ult i64 %36, %37
  br i1 %38, label %40, label %39

39:                                               ; preds = %35
  store i32 2, ptr %10, align 4
  br label %118

40:                                               ; preds = %35
  %41 = load i64, ptr %8, align 8, !tbaa !3
  %42 = icmp uge i64 %41, 1024
  br i1 %42, label %43, label %44

43:                                               ; preds = %40
  store i64 0, ptr %8, align 8, !tbaa !3
  br label %44

44:                                               ; preds = %43, %40
  call void @llvm.lifetime.start.p0(i64 8, ptr %11) #8
  %45 = load i64, ptr %8, align 8, !tbaa !3
  %46 = getelementptr inbounds nuw [1024 x %struct.mi_cache_slot_s], ptr @cache, i64 0, i64 %45
  store ptr %46, ptr %11, align 8, !tbaa !22
  call void @llvm.lifetime.start.p0(i64 8, ptr %12) #8
  %47 = load ptr, ptr %11, align 8, !tbaa !22
  %48 = getelementptr inbounds nuw %struct.mi_cache_slot_s, ptr %47, i32 0, i32 5
  %49 = load atomic i64, ptr %48 monotonic, align 8
  store i64 %49, ptr %13, align 8
  %50 = load i64, ptr %13, align 8, !tbaa !3
  store i64 %50, ptr %12, align 8, !tbaa !3
  %51 = load i64, ptr %12, align 8, !tbaa !3
  %52 = icmp ne i64 %51, 0
  br i1 %52, label %53, label %109

53:                                               ; preds = %44
  %54 = load i8, ptr %3, align 1, !tbaa !18, !range !20, !noundef !21
  %55 = trunc i8 %54 to i1
  br i1 %55, label %60, label %56

56:                                               ; preds = %53
  %57 = load i64, ptr %5, align 8, !tbaa !3
  %58 = load i64, ptr %12, align 8, !tbaa !3
  %59 = icmp sge i64 %57, %58
  br i1 %59, label %60, label %109

60:                                               ; preds = %56, %53
  %61 = load i64, ptr %6, align 8, !tbaa !3
  %62 = add i64 %61, 1
  store i64 %62, ptr %6, align 8, !tbaa !3
  call void @llvm.lifetime.start.p0(i64 8, ptr %14) #8
  %63 = load i64, ptr %8, align 8, !tbaa !3
  %64 = call i64 @mi_bitmap_index_create_from_bit(i64 noundef %63)
  store i64 %64, ptr %14, align 8, !tbaa !3
  %65 = load i64, ptr %14, align 8, !tbaa !3
  %66 = call zeroext i1 @_mi_bitmap_claim(ptr noundef @cache_available, i64 noundef 16, i64 noundef 1, i64 noundef %65, ptr noundef null)
  br i1 %66, label %67, label %98

67:                                               ; preds = %60
  %68 = load ptr, ptr %11, align 8, !tbaa !22
  %69 = getelementptr inbounds nuw %struct.mi_cache_slot_s, ptr %68, i32 0, i32 5
  %70 = load atomic i64, ptr %69 acquire, align 8
  store i64 %70, ptr %15, align 8
  %71 = load i64, ptr %15, align 8, !tbaa !3
  store i64 %71, ptr %12, align 8, !tbaa !3
  %72 = load i64, ptr %12, align 8, !tbaa !3
  %73 = icmp ne i64 %72, 0
  br i1 %73, label %74, label %95

74:                                               ; preds = %67
  %75 = load i8, ptr %3, align 1, !tbaa !18, !range !20, !noundef !21
  %76 = trunc i8 %75 to i1
  br i1 %76, label %81, label %77

77:                                               ; preds = %74
  %78 = load i64, ptr %5, align 8, !tbaa !3
  %79 = load i64, ptr %12, align 8, !tbaa !3
  %80 = icmp sge i64 %78, %79
  br i1 %80, label %81, label %95

81:                                               ; preds = %77, %74
  %82 = load ptr, ptr %11, align 8, !tbaa !22
  %83 = getelementptr inbounds nuw %struct.mi_cache_slot_s, ptr %82, i32 0, i32 5
  store i64 0, ptr %16, align 8, !tbaa !3
  %84 = load i64, ptr %16, align 8
  store atomic i64 %84, ptr %83 monotonic, align 8
  call void @_mi_abandoned_await_readers()
  %85 = load ptr, ptr %11, align 8, !tbaa !22
  %86 = getelementptr inbounds nuw %struct.mi_cache_slot_s, ptr %85, i32 0, i32 3
  %87 = load ptr, ptr %11, align 8, !tbaa !22
  %88 = getelementptr inbounds nuw %struct.mi_cache_slot_s, ptr %87, i32 0, i32 0
  %89 = load ptr, ptr %88, align 8, !tbaa !24
  %90 = load ptr, ptr %4, align 8, !tbaa !14
  %91 = getelementptr inbounds nuw %struct.mi_os_tld_s, ptr %90, i32 0, i32 1
  %92 = load ptr, ptr %91, align 8, !tbaa !32
  call void @mi_commit_mask_decommit(ptr noundef %86, ptr noundef %89, i64 noundef 67108864, ptr noundef %92)
  %93 = load ptr, ptr %11, align 8, !tbaa !22
  %94 = getelementptr inbounds nuw %struct.mi_cache_slot_s, ptr %93, i32 0, i32 4
  call void @mi_commit_mask_create_empty(ptr noundef %94)
  br label %95

95:                                               ; preds = %81, %77, %67
  %96 = load i64, ptr %14, align 8, !tbaa !3
  %97 = call zeroext i1 @_mi_bitmap_unclaim(ptr noundef @cache_available, i64 noundef 16, i64 noundef 1, i64 noundef %96)
  br label %98

98:                                               ; preds = %95, %60
  %99 = load i8, ptr %3, align 1, !tbaa !18, !range !20, !noundef !21
  %100 = trunc i8 %99 to i1
  br i1 %100, label %105, label %101

101:                                              ; preds = %98
  %102 = load i64, ptr %6, align 8, !tbaa !3
  %103 = icmp ugt i64 %102, 4
  br i1 %103, label %104, label %105

104:                                              ; preds = %101
  store i32 2, ptr %10, align 4
  br label %106

105:                                              ; preds = %101, %98
  store i32 0, ptr %10, align 4
  br label %106

106:                                              ; preds = %105, %104
  call void @llvm.lifetime.end.p0(i64 8, ptr %14) #8
  %107 = load i32, ptr %10, align 4
  switch i32 %107, label %110 [
    i32 0, label %108
  ]

108:                                              ; preds = %106
  br label %109

109:                                              ; preds = %108, %56, %44
  store i32 0, ptr %10, align 4
  br label %110

110:                                              ; preds = %109, %106
  call void @llvm.lifetime.end.p0(i64 8, ptr %12) #8
  call void @llvm.lifetime.end.p0(i64 8, ptr %11) #8
  %111 = load i32, ptr %10, align 4
  switch i32 %111, label %118 [
    i32 0, label %112
  ]

112:                                              ; preds = %110
  br label %113

113:                                              ; preds = %112
  %114 = load i64, ptr %9, align 8, !tbaa !3
  %115 = add i64 %114, 1
  store i64 %115, ptr %9, align 8, !tbaa !3
  %116 = load i64, ptr %8, align 8, !tbaa !3
  %117 = add i64 %116, 1
  store i64 %117, ptr %8, align 8, !tbaa !3
  br label %35, !llvm.loop !35

118:                                              ; preds = %110, %39
  call void @llvm.lifetime.end.p0(i64 8, ptr %9) #8
  br label %119

119:                                              ; preds = %118
  call void @llvm.lifetime.end.p0(i64 8, ptr %8) #8
  call void @llvm.lifetime.end.p0(i64 8, ptr %7) #8
  call void @llvm.lifetime.end.p0(i64 8, ptr %6) #8
  call void @llvm.lifetime.end.p0(i64 8, ptr %5) #8
  br label %120

120:                                              ; preds = %119, %19
  ret void
}