; Function Attrs: noinline nounwind uwtable
define internal fastcc void @mi_segment_cache_purge(i1 noundef zeroext %0, ptr noundef readonly captures(none) %1) unnamed_addr #0 {
  %3 = tail call zeroext i1 @mi_option_is_enabled(i32 noundef 22) #9
  br i1 %3, label %4, label %.loopexit

4:                                                ; preds = %2
  %5 = tail call i64 @_mi_clock_now() #9
  %6 = select i1 %0, i64 1024, i64 16
  br i1 %0, label %.split.us.preheader, label %.split.preheader

.split.preheader:                                 ; preds = %4
  %7 = icmp eq i64 %5, 0
  %spec.store.select.i = select i1 %7, i64 17, i64 %5
  %8 = lshr i64 %spec.store.select.i, 30
  %9 = xor i64 %8, %spec.store.select.i
  %10 = mul i64 %9, -4658895280553007687
  %11 = lshr i64 %10, 27
  %12 = xor i64 %11, %10
  %13 = mul i64 %12, -7723592293110705685
  %14 = lshr i64 %13, 31
  %15 = xor i64 %14, %13
  %16 = and i64 %15, 1023
  %17 = getelementptr inbounds nuw i8, ptr %1, i64 8
  br label %.split

.split.us.preheader:                              ; preds = %4
  %18 = getelementptr inbounds nuw i8, ptr %1, i64 8
  br label %.split.us

.split.us:                                        ; preds = %.split.us.preheader, %.thread.us
  %.03656.us = phi i64 [ %35, %.thread.us ], [ 0, %.split.us.preheader ]
  %.03755.us = phi i64 [ %34, %.thread.us ], [ 0, %.split.us.preheader ]
  %19 = icmp ugt i64 %.03656.us, 1023
  %spec.store.select.us = select i1 %19, i64 0, i64 %.03656.us
  %20 = getelementptr inbounds nuw [1024 x %struct.mi_cache_slot_s], ptr @cache, i64 0, i64 %spec.store.select.us
  %21 = getelementptr inbounds nuw i8, ptr %20, i64 280
  %22 = load atomic i64, ptr %21 monotonic, align 8
  %.not42.us = icmp eq i64 %22, 0
  br i1 %.not42.us, label %.thread.us, label %23

23:                                               ; preds = %.split.us
  %24 = tail call zeroext i1 @_mi_bitmap_claim(ptr noundef nonnull @cache_available, i64 noundef 16, i64 noundef 1, i64 noundef %spec.store.select.us, ptr noundef null) #9
  br i1 %24, label %25, label %.thread.us

25:                                               ; preds = %23
  %26 = load atomic i64, ptr %21 acquire, align 8
  %.not44.us = icmp eq i64 %26, 0
  br i1 %.not44.us, label %32, label %27

27:                                               ; preds = %25
  store atomic i64 0, ptr %21 monotonic, align 8
  tail call void @_mi_abandoned_await_readers() #9
  %28 = getelementptr inbounds nuw i8, ptr %20, i64 24
  %29 = load ptr, ptr %20, align 32, !tbaa !13
  %30 = load ptr, ptr %18, align 8, !tbaa !21
  tail call fastcc void @mi_commit_mask_decommit(ptr noundef nonnull %28, ptr noundef %29, ptr noundef %30)
  %31 = getelementptr inbounds nuw i8, ptr %20, i64 152
  tail call void @llvm.memset.p0.i64(ptr noundef nonnull align 8 dereferenceable(128) %31, i8 0, i64 128, i1 false), !tbaa !5
  br label %32

32:                                               ; preds = %27, %25
  %33 = tail call zeroext i1 @_mi_bitmap_unclaim(ptr noundef nonnull @cache_available, i64 noundef 16, i64 noundef 1, i64 noundef %spec.store.select.us) #9
  br label %.thread.us

.thread.us:                                       ; preds = %23, %32, %.split.us
  %34 = add nuw nsw i64 %.03755.us, 1
  %35 = add i64 %spec.store.select.us, 1
  %exitcond60.not = icmp eq i64 %34, %6
  br i1 %exitcond60.not, label %.loopexit, label %.split.us, !llvm.loop !24

.split:                                           ; preds = %.split.preheader, %.thread
  %.057 = phi i64 [ %.252, %.thread ], [ 0, %.split.preheader ]
  %.03656 = phi i64 [ %55, %.thread ], [ %16, %.split.preheader ]
  %.03755 = phi i64 [ %54, %.thread ], [ 0, %.split.preheader ]
  %36 = icmp ugt i64 %.03656, 1023
  %spec.store.select = select i1 %36, i64 0, i64 %.03656
  %37 = getelementptr inbounds nuw [1024 x %struct.mi_cache_slot_s], ptr @cache, i64 0, i64 %spec.store.select
  %38 = getelementptr inbounds nuw i8, ptr %37, i64 280
  %39 = load atomic i64, ptr %38 monotonic, align 8
  %.not42 = icmp ne i64 %39, 0
  %.not43 = icmp sge i64 %5, %39
  %or.cond = select i1 %.not42, i1 %.not43, i1 false
  br i1 %or.cond, label %40, label %.thread

40:                                               ; preds = %.split
  %41 = add nuw nsw i64 %.057, 1
  %42 = tail call zeroext i1 @_mi_bitmap_claim(ptr noundef nonnull @cache_available, i64 noundef 16, i64 noundef 1, i64 noundef %spec.store.select, ptr noundef null) #9
  br i1 %42, label %43, label %52

43:                                               ; preds = %40
  %44 = load atomic i64, ptr %38 acquire, align 8
  %.not44 = icmp eq i64 %44, 0
  %.not45 = icmp slt i64 %5, %44
  %or.cond53 = select i1 %.not44, i1 true, i1 %.not45
  br i1 %or.cond53, label %50, label %45

45:                                               ; preds = %43
  store atomic i64 0, ptr %38 monotonic, align 8
  tail call void @_mi_abandoned_await_readers() #9
  %46 = getelementptr inbounds nuw i8, ptr %37, i64 24
  %47 = load ptr, ptr %37, align 32, !tbaa !13
  %48 = load ptr, ptr %17, align 8, !tbaa !21
  tail call fastcc void @mi_commit_mask_decommit(ptr noundef nonnull %46, ptr noundef %47, ptr noundef %48)
  %49 = getelementptr inbounds nuw i8, ptr %37, i64 152
  tail call void @llvm.memset.p0.i64(ptr noundef nonnull align 8 dereferenceable(128) %49, i8 0, i64 128, i1 false), !tbaa !5
  br label %50

50:                                               ; preds = %45, %43
  %51 = tail call zeroext i1 @_mi_bitmap_unclaim(ptr noundef nonnull @cache_available, i64 noundef 16, i64 noundef 1, i64 noundef %spec.store.select) #9
  br label %52

52:                                               ; preds = %50, %40
  %53 = icmp ult i64 %.057, 4
  br i1 %53, label %.thread, label %.loopexit

.thread:                                          ; preds = %52, %.split
  %.252 = phi i64 [ %.057, %.split ], [ %41, %52 ]
  %54 = add nuw nsw i64 %.03755, 1
  %55 = add i64 %spec.store.select, 1
  %exitcond.not = icmp eq i64 %54, %6
  br i1 %exitcond.not, label %.loopexit, label %.split, !llvm.loop !24

.loopexit:                                        ; preds = %.thread, %52, %.thread.us, %2
  ret void
}